target datalayout = "e-m:e-p270:32:32-p271:32:32-p272:64:64-i64:64-i128:128-f80:128-n8:16:32:64-S128"
target triple = "x86_64-pc-linux-gnu"

; Function Attrs: mustprogress nounwind uwtable
define hidden void @_ZN19OpenColorIO_v2_5dev20GradingTonePreRender9FromStyleENS_12GradingStyleERfS2_S2_S2_(i32 noundef %0, ptr noundef nonnull align 4 dereferenceable(4) %1, ptr noundef nonnull align 4 dereferenceable(4) %2, ptr noundef nonnull align 4 dereferenceable(4) %3, ptr noundef nonnull align 4 dereferenceable(4) %4) #4 align 2 {
  %6 = alloca i32, align 4
  %7 = alloca ptr, align 8
  %8 = alloca ptr, align 8
  %9 = alloca ptr, align 8
  %10 = alloca ptr, align 8
  store i32 %0, ptr %6, align 4, !tbaa !35
  store ptr %1, ptr %7, align 8, !tbaa !58
  store ptr %2, ptr %8, align 8, !tbaa !58
  store ptr %3, ptr %9, align 8, !tbaa !58
  store ptr %4, ptr %10, align 8, !tbaa !58
  %11 = load i32, ptr %6, align 4, !tbaa !35
  switch i32 %11, label %27 [
    i32 0, label %12
    i32 1, label %17
    i32 2, label %22
  ]

12:                                               ; preds = %5
  %13 = load ptr, ptr %7, align 8, !tbaa !58
  store float 1.000000e+00, ptr %13, align 4, !tbaa !51
  %14 = load ptr, ptr %8, align 8, !tbaa !58
  store float 1.000000e+00, ptr %14, align 4, !tbaa !51
  %15 = load ptr, ptr %9, align 8, !tbaa !58
  store float 0.000000e+00, ptr %15, align 4, !tbaa !51
  %16 = load ptr, ptr %10, align 8, !tbaa !58
  store float 0x3FD99999A0000000, ptr %16, align 4, !tbaa !51
  br label %28

17:                                               ; preds = %5
  %18 = load ptr, ptr %7, align 8, !tbaa !58
  store float 7.500000e+00, ptr %18, align 4, !tbaa !51
  %19 = load ptr, ptr %8, align 8, !tbaa !58
  store float 6.500000e+00, ptr %19, align 4, !tbaa !51
  %20 = load ptr, ptr %9, align 8, !tbaa !58
  store float -5.500000e+00, ptr %20, align 4, !tbaa !51
  %21 = load ptr, ptr %10, align 8, !tbaa !58
  store float 0.000000e+00, ptr %21, align 4, !tbaa !51
  br label %28

22:                                               ; preds = %5
  %23 = load ptr, ptr %7, align 8, !tbaa !58
  store float 1.000000e+00, ptr %23, align 4, !tbaa !51
  %24 = load ptr, ptr %8, align 8, !tbaa !58
  store float 1.000000e+00, ptr %24, align 4, !tbaa !51
  %25 = load ptr, ptr %9, align 8, !tbaa !58
  store float 0.000000e+00, ptr %25, align 4, !tbaa !51
  %26 = load ptr, ptr %10, align 8, !tbaa !58
  store float 0x3FD99999A0000000, ptr %26, align 4, !tbaa !51
  br label %28

27:                                               ; preds = %5
  br label %28

28:                                               ; preds = %27, %22, %17, %12
  ret void
}