; Function Attrs: mustprogress nofree norecurse nosync nounwind willreturn memory(argmem: write) uwtable
define hidden void @_ZN19OpenColorIO_v2_5dev20GradingTonePreRender9FromStyleENS_12GradingStyleERfS2_S2_S2_(i32 noundef %0, ptr noundef nonnull writeonly align 4 captures(none) dereferenceable(4) %1, ptr noundef nonnull writeonly align 4 captures(none) dereferenceable(4) %2, ptr noundef nonnull writeonly align 4 captures(none) dereferenceable(4) %3, ptr noundef nonnull writeonly align 4 captures(none) dereferenceable(4) %4) local_unnamed_addr #8 align 2 {
  %6 = icmp ult i32 %0, 3
  br i1 %6, label %switch.lookup, label %11

switch.lookup:                                    ; preds = %5
  %7 = zext nneg i32 %0 to i64
  %switch.gep = getelementptr inbounds nuw [3 x float], ptr @switch.table._ZN19OpenColorIO_v2_5dev20GradingTonePreRender9FromStyleENS_12GradingStyleERfS2_S2_S2_, i64 0, i64 %7
  %switch.load = load float, ptr %switch.gep, align 4
  %8 = zext nneg i32 %0 to i64
  %switch.gep15 = getelementptr inbounds nuw [3 x float], ptr @switch.table._ZN19OpenColorIO_v2_5dev20GradingTonePreRender9FromStyleENS_12GradingStyleERfS2_S2_S2_.4, i64 0, i64 %8
  %switch.load16 = load float, ptr %switch.gep15, align 4
  %9 = zext nneg i32 %0 to i64
  %switch.gep17 = getelementptr inbounds nuw [3 x float], ptr @switch.table._ZN19OpenColorIO_v2_5dev20GradingTonePreRender9FromStyleENS_12GradingStyleERfS2_S2_S2_.5, i64 0, i64 %9
  %switch.load18 = load float, ptr %switch.gep17, align 4
  %10 = zext nneg i32 %0 to i64
  %switch.gep19 = getelementptr inbounds nuw [3 x float], ptr @switch.table._ZN19OpenColorIO_v2_5dev20GradingTonePreRender9FromStyleENS_12GradingStyleERfS2_S2_S2_.6, i64 0, i64 %10
  %switch.load20 = load float, ptr %switch.gep19, align 4
  store float %switch.load, ptr %1, align 4, !tbaa !33
  store float %switch.load16, ptr %2, align 4, !tbaa !33
  store float %switch.load18, ptr %3, align 4, !tbaa !33
  store float %switch.load20, ptr %4, align 4, !tbaa !33
  br label %11

11:                                               ; preds = %5, %switch.lookup
  ret void
}